Certificate:
    Data:
        Version: 3 (0x2)
        Serial Number:
            73:bf:26:23:ea:d7:b7:80:17:ae:12:15:ea:61:51:99
        Signature Algorithm: sha256WithRSAEncryption
        Issuer: CN=davidrgfoss
        Validity
            Not Before: Feb 13 22:38:13 2023 GMT
            Not After : May 18 22:38:13 2025 GMT
        Subject: CN=server2
        Subject Public Key Info:
            Public Key Algorithm: rsaEncryption
                RSA Public-Key: (2048 bit)
                Modulus:
                    00:c8:ea:25:61:34:19:5b:aa:4d:6a:b3:2c:b8:9f:
                    8c:05:77:8e:a5:56:51:1c:35:8e:06:f8:30:fe:d8:
                    c4:56:7b:11:10:cc:a9:36:7f:d1:52:31:03:a7:c1:
                    d0:27:81:bf:42:3f:d4:dd:36:68:ac:17:d8:c8:bb:
                    73:8c:f2:97:d6:5a:ec:0d:11:35:a8:67:46:b5:33:
                    ff:7b:dc:c4:96:c6:53:51:4a:44:5b:52:58:f2:25:
                    fc:9b:4e:ef:63:c4:46:0b:d5:71:9d:32:36:d5:95:
                    80:09:28:cd:09:66:f0:f0:04:a7:75:8f:b4:83:56:
                    6e:98:fc:fc:5a:29:b3:ce:17:66:68:2c:2d:46:bc:
                    35:40:a7:e8:9a:dd:c9:38:78:5a:12:6f:0f:93:6e:
                    44:f9:d5:2b:24:b5:61:ec:d9:93:68:9a:9b:d6:db:
                    30:28:2e:ec:e3:e6:fa:e0:87:19:6f:d0:7d:ff:fc:
                    cc:d7:39:ab:14:95:a1:82:d5:19:e4:78:c1:41:a8:
                    fb:8c:75:3b:23:07:cf:fa:1a:76:0f:db:4b:88:e1:
                    3c:dc:50:ab:1c:28:91:16:bc:7e:4f:64:ac:b8:5c:
                    c2:c5:97:dd:8a:3d:95:45:6d:c6:f1:d8:6d:ec:59:
                    00:e3:3e:88:6c:12:3e:d2:93:fb:32:d7:bc:3a:d5:
                    27:75
                Exponent: 65537 (0x10001)
        X509v3 extensions:
            X509v3 Basic Constraints: 
                CA:FALSE
            X509v3 Subject Key Identifier: 
                11:61:C5:66:47:21:EC:45:52:BF:54:61:AC:19:0F:CA:A6:91:10:EF
            X509v3 Authority Key Identifier: 
                keyid:3F:FD:28:41:40:21:95:7E:14:C9:9B:C9:6A:16:66:C3:E9:95:FB:B3
                DirName:/CN=davidrgfoss
                serial:1F:94:34:F7:8A:D6:45:D4:0A:18:52:A2:E6:8C:0E:BC:F3:C1:8F:78

            X509v3 Extended Key Usage: 
                TLS Web Server Authentication
            X509v3 Key Usage: 
                Digital Signature, Key Encipherment
            X509v3 Subject Alternative Name: 
                DNS:server2
    Signature Algorithm: sha256WithRSAEncryption
         28:d6:83:ef:f7:c3:b5:85:a8:2f:94:d9:7f:8a:19:cd:60:b0:
         2e:01:97:ab:76:9f:47:3f:6c:f0:83:45:98:26:76:62:df:3f:
         7f:fa:19:74:27:33:2d:3a:9e:63:c5:ea:e7:46:e1:33:a6:84:
         df:b1:d8:cf:27:17:7a:c4:a0:a0:d7:a7:61:34:bd:f7:e3:a0:
         9f:ff:05:92:9d:e8:1f:1a:c3:92:b4:33:eb:bf:23:d4:28:6c:
         ba:07:f8:c7:b5:0f:5a:1a:7b:87:4c:6e:d8:c7:41:db:83:8b:
         db:55:9a:9b:f3:00:d6:db:da:8f:60:74:3a:73:ed:d8:3e:3b:
         88:86:db:1c:aa:73:14:a6:25:21:51:90:7e:b3:0b:78:c6:74:
         f3:a5:7c:01:37:ac:4c:b2:91:7d:49:d5:a7:26:74:f0:42:69:
         76:8f:ca:db:96:21:94:27:33:19:7b:4f:1a:c2:ab:3c:41:f1:
         29:53:f8:fa:b0:fd:00:04:bd:7d:1c:98:3a:e8:65:9f:5a:e0:
         b5:f6:52:41:f0:d5:f2:e3:01:53:a5:1d:5c:ee:60:80:e7:c7:
         02:79:45:49:00:63:75:ef:79:3a:c0:56:69:0d:a4:42:26:ef:
         9b:d6:85:d3:94:c7:bd:3e:e5:0d:3d:96:51:2f:dc:06:1a:bc:
         7d:21:d5:71
-----BEGIN CERTIFICATE-----
MIIDaTCCAlGgAwIBAgIQc78mI+rXt4AXrhIV6mFRmTANBgkqhkiG9w0BAQsFADAW
MRQwEgYDVQQDDAtkYXZpZHJnZm9zczAeFw0yMzAyMTMyMjM4MTNaFw0yNTA1MTgy
MjM4MTNaMBIxEDAOBgNVBAMMB3NlcnZlcjIwggEiMA0GCSqGSIb3DQEBAQUAA4IB
DwAwggEKAoIBAQDI6iVhNBlbqk1qsyy4n4wFd46lVlEcNY4G+DD+2MRWexEQzKk2
f9FSMQOnwdAngb9CP9TdNmisF9jIu3OM8pfWWuwNETWoZ0a1M/973MSWxlNRSkRb
UljyJfybTu9jxEYL1XGdMjbVlYAJKM0JZvDwBKd1j7SDVm6Y/PxaKbPOF2ZoLC1G
vDVAp+ia3ck4eFoSbw+TbkT51SsktWHs2ZNompvW2zAoLuzj5vrghxlv0H3//MzX
OasUlaGC1RnkeMFBqPuMdTsjB8/6GnYP20uI4TzcUKscKJEWvH5PZKy4XMLFl92K
PZVFbcbx2G3sWQDjPohsEj7Sk/sy17w61Sd1AgMBAAGjgbYwgbMwCQYDVR0TBAIw
ADAdBgNVHQ4EFgQUEWHFZkch7EVSv1RhrBkPyqaREO8wUQYDVR0jBEowSIAUP/0o
QUAhlX4UyZvJahZmw+mV+7OhGqQYMBYxFDASBgNVBAMMC2Rhdmlkcmdmb3NzghQf
lDT3itZF1AoYUqLmjA6888GPeDATBgNVHSUEDDAKBggrBgEFBQcDATALBgNVHQ8E
BAMCBaAwEgYDVR0RBAswCYIHc2VydmVyMjANBgkqhkiG9w0BAQsFAAOCAQEAKNaD
7/fDtYWoL5TZf4oZzWCwLgGXq3afRz9s8INFmCZ2Yt8/f/oZdCczLTqeY8Xq50bh
M6aE37HYzycXesSgoNenYTS99+Ogn/8Fkp3oHxrDkrQz678j1Chsugf4x7UPWhp7
h0xu2MdB24OL21Wam/MA1tvaj2B0OnPt2D47iIbbHKpzFKYlIVGQfrMLeMZ086V8
ATesTLKRfUnVpyZ08EJpdo/K25YhlCczGXtPGsKrPEHxKVP4+rD9AAS9fRyYOuhl
n1rgtfZSQfDV8uMBU6UdXO5ggOfHAnlFSQBjde95OsBWaQ2kQibvm9aF05THvT7l
DT2WUS/cBhq8fSHVcQ==
-----END CERTIFICATE-----
