Certificate:
    Data:
        Version: 3 (0x2)
        Serial Number:
            66:39:38:37:bc:9c:b2:1b:50:f6:c6:ec:35:e5:38:60
        Signature Algorithm: sha256WithRSAEncryption
        Issuer: CN=davidrgfoss
        Validity
            Not Before: Jan 27 05:20:40 2023 GMT
            Not After : May  1 05:20:40 2025 GMT
        Subject: CN=cliente1
        Subject Public Key Info:
            Public Key Algorithm: rsaEncryption
                RSA Public-Key: (2048 bit)
                Modulus:
                    00:f9:24:4c:f5:93:22:57:33:11:0e:a8:7c:03:28:
                    5b:95:eb:6e:ef:e3:42:bf:34:5e:04:b0:b2:43:7c:
                    35:b6:d0:e9:2c:44:9e:b2:74:76:09:11:c9:45:93:
                    01:75:94:e7:b5:f5:63:8e:61:f4:48:f4:36:d8:22:
                    77:e5:45:af:4d:30:aa:36:27:61:7a:64:e8:ed:2b:
                    8a:35:0a:91:0f:81:4c:cc:4f:12:c6:d7:9a:e6:b3:
                    b5:b7:0b:e4:fc:cc:7c:fe:13:2c:43:c3:58:30:2e:
                    02:dc:42:c3:ca:32:1c:ac:99:cc:0d:01:78:ad:99:
                    57:f3:75:35:af:c8:7d:50:ad:dc:f4:4e:da:51:c3:
                    d0:15:c3:92:68:31:f9:b6:1b:07:89:65:e0:d0:c3:
                    a1:77:e9:ec:55:06:71:9b:8e:39:7f:21:cc:e3:e1:
                    cc:d0:95:d3:4f:db:74:15:c6:4c:58:f8:53:f7:2a:
                    f4:9a:b2:5d:44:7f:63:8a:62:26:d4:46:3a:70:94:
                    45:6e:83:21:a5:1c:70:c8:4c:d8:9a:5c:30:c8:fa:
                    c9:27:60:9c:c6:35:4e:f9:3b:f7:72:0f:51:fd:65:
                    fd:70:6f:75:38:d5:f2:3d:95:7e:a1:b5:db:0a:3a:
                    a1:18:d5:cd:9c:a8:d2:56:7b:2c:06:9f:d6:c0:c7:
                    9e:59
                Exponent: 65537 (0x10001)
        X509v3 extensions:
            X509v3 Basic Constraints: 
                CA:FALSE
            X509v3 Subject Key Identifier: 
                ED:82:AE:2F:D1:8A:18:3D:1D:AD:81:F8:62:8A:36:1F:9C:D6:88:C1
            X509v3 Authority Key Identifier: 
                keyid:0C:59:D9:80:E4:09:12:F2:A3:6D:A3:A5:DE:86:68:20:6F:08:C5:BE
                DirName:/CN=davidrgfoss
                serial:48:AA:1F:B1:60:1A:08:AD:E5:89:05:4D:BA:56:D0:CF:37:C5:3C:90

            X509v3 Extended Key Usage: 
                TLS Web Client Authentication
            X509v3 Key Usage: 
                Digital Signature
    Signature Algorithm: sha256WithRSAEncryption
         7f:78:28:6e:58:10:89:4e:58:cd:32:f4:b8:aa:53:21:af:ca:
         7e:17:04:44:ca:78:96:76:3e:b8:f0:6b:01:29:af:3a:7f:a0:
         8f:b6:8e:0f:f0:9a:67:ef:c3:bf:d2:d9:75:74:ec:7c:d0:d8:
         5e:7f:49:a4:05:2a:fc:64:15:2b:f3:10:f4:60:a6:a3:45:f7:
         6a:64:a6:c0:61:44:18:90:2a:ff:c1:d2:d6:3b:6c:29:43:e0:
         1f:b7:6b:fe:3b:ec:0e:e0:f6:28:5b:fd:8e:d8:74:52:f2:e6:
         58:96:84:52:d2:f2:c0:99:d0:ed:0b:c5:dc:8c:39:e7:50:56:
         27:a2:3a:7e:bd:81:ce:ea:8b:ce:96:7e:14:c0:39:af:5f:7c:
         fb:f2:9c:88:8c:20:97:66:9c:ea:0c:dc:81:09:b9:a8:e2:d3:
         ef:53:4c:f5:e4:b6:2c:a3:76:bb:e8:18:21:de:f0:0f:c1:79:
         0f:9d:55:dd:c8:68:74:e4:7f:52:f1:d1:a0:8f:9c:9e:65:2e:
         1a:21:8c:51:3d:df:ee:65:5b:54:66:49:58:62:df:a2:75:74:
         d9:24:f8:33:93:d8:d9:97:86:3c:9a:e9:78:7f:60:bf:65:4a:
         29:86:ff:b7:b4:06:3e:94:75:b4:95:82:40:27:25:cb:2b:08:
         84:e2:d6:24
-----BEGIN CERTIFICATE-----
MIIDVjCCAj6gAwIBAgIQZjk4N7ycshtQ9sbsNeU4YDANBgkqhkiG9w0BAQsFADAW
MRQwEgYDVQQDDAtkYXZpZHJnZm9zczAeFw0yMzAxMjcwNTIwNDBaFw0yNTA1MDEw
NTIwNDBaMBMxETAPBgNVBAMMCGNsaWVudGUxMIIBIjANBgkqhkiG9w0BAQEFAAOC
AQ8AMIIBCgKCAQEA+SRM9ZMiVzMRDqh8Ayhbletu7+NCvzReBLCyQ3w1ttDpLESe
snR2CRHJRZMBdZTntfVjjmH0SPQ22CJ35UWvTTCqNidhemTo7SuKNQqRD4FMzE8S
xtea5rO1twvk/Mx8/hMsQ8NYMC4C3ELDyjIcrJnMDQF4rZlX83U1r8h9UK3c9E7a
UcPQFcOSaDH5thsHiWXg0MOhd+nsVQZxm445fyHM4+HM0JXTT9t0FcZMWPhT9yr0
mrJdRH9jimIm1EY6cJRFboMhpRxwyEzYmlwwyPrJJ2CcxjVO+Tv3cg9R/WX9cG91
ONXyPZV+obXbCjqhGNXNnKjSVnssBp/WwMeeWQIDAQABo4GiMIGfMAkGA1UdEwQC
MAAwHQYDVR0OBBYEFO2Cri/Rihg9Ha2B+GKKNh+c1ojBMFEGA1UdIwRKMEiAFAxZ
2YDkCRLyo22jpd6GaCBvCMW+oRqkGDAWMRQwEgYDVQQDDAtkYXZpZHJnZm9zc4IU
SKofsWAaCK3liQVNulbQzzfFPJAwEwYDVR0lBAwwCgYIKwYBBQUHAwIwCwYDVR0P
BAQDAgeAMA0GCSqGSIb3DQEBCwUAA4IBAQB/eChuWBCJTljNMvS4qlMhr8p+FwRE
yniWdj648GsBKa86f6CPto4P8Jpn78O/0tl1dOx80Nhef0mkBSr8ZBUr8xD0YKaj
RfdqZKbAYUQYkCr/wdLWO2wpQ+Aft2v+O+wO4PYoW/2O2HRS8uZYloRS0vLAmdDt
C8XcjDnnUFYnojp+vYHO6ovOln4UwDmvX3z78pyIjCCXZpzqDNyBCbmo4tPvU0z1
5LYso3a76Bgh3vAPwXkPnVXdyGh05H9S8dGgj5yeZS4aIYxRPd/uZVtUZklYYt+i
dXTZJPgzk9jZl4Y8mul4f2C/ZUophv+3tAY+lHW0lYJAJyXLKwiE4tYk
-----END CERTIFICATE-----
