Certificate:
    Data:
        Version: 3 (0x2)
        Serial Number:
            03:1a:32:99:71:17:69:ec:80:ea:c5:72:c4:b7:3e:87
        Signature Algorithm: sha256WithRSAEncryption
        Issuer: CN=davidrgfoss
        Validity
            Not Before: Jan 27 05:20:45 2023 GMT
            Not After : May  1 05:20:45 2025 GMT
        Subject: CN=cliente2
        Subject Public Key Info:
            Public Key Algorithm: rsaEncryption
                RSA Public-Key: (2048 bit)
                Modulus:
                    00:b2:59:98:5d:9f:6a:0f:cb:2a:34:b5:e5:01:7d:
                    cb:f6:d9:70:91:43:5c:dd:b2:1a:f7:b9:42:5a:78:
                    5b:0e:49:f0:d9:ef:c1:1a:12:77:e5:d9:6d:5d:5a:
                    b9:5c:55:29:1a:d6:7a:58:79:c8:26:53:f7:6a:a4:
                    58:e1:b9:21:ff:29:b2:6e:b5:03:9d:f2:09:1c:84:
                    28:11:0a:07:21:e1:02:fd:2a:63:a0:d4:06:82:bc:
                    13:62:e8:12:a6:50:66:0b:8a:ca:64:8e:cf:e8:4a:
                    35:a6:db:06:4d:11:59:b9:cf:2d:42:64:ab:e4:7b:
                    ba:9a:48:27:56:29:ce:29:3e:f2:1a:be:84:a9:2c:
                    c1:0f:5a:7f:39:22:97:0c:b5:71:41:65:15:fd:1b:
                    96:ea:b8:3f:c7:58:9f:96:4b:b6:b9:2b:05:27:8a:
                    9d:64:ff:b7:fb:4c:e4:17:a9:65:2d:d7:3c:9a:17:
                    cb:b7:dd:db:b8:97:b0:a7:9b:7b:de:d1:fa:b6:13:
                    75:43:fc:c6:46:bc:26:b2:59:39:9f:6a:47:f5:d1:
                    e9:ef:95:53:1d:81:8c:13:93:61:00:e6:63:cf:ad:
                    91:ca:97:ae:8b:30:6a:2a:3b:e4:91:00:b4:71:1b:
                    59:e3:f0:ca:17:3b:51:f8:0d:ef:df:88:bb:01:17:
                    76:8d
                Exponent: 65537 (0x10001)
        X509v3 extensions:
            X509v3 Basic Constraints: 
                CA:FALSE
            X509v3 Subject Key Identifier: 
                21:3F:2A:C4:AF:6C:54:20:E5:6B:14:A9:09:F8:F2:F4:8A:C8:58:5E
            X509v3 Authority Key Identifier: 
                keyid:0C:59:D9:80:E4:09:12:F2:A3:6D:A3:A5:DE:86:68:20:6F:08:C5:BE
                DirName:/CN=davidrgfoss
                serial:48:AA:1F:B1:60:1A:08:AD:E5:89:05:4D:BA:56:D0:CF:37:C5:3C:90

            X509v3 Extended Key Usage: 
                TLS Web Client Authentication
            X509v3 Key Usage: 
                Digital Signature
    Signature Algorithm: sha256WithRSAEncryption
         62:12:03:9e:a7:05:30:6d:06:89:cf:c0:7c:20:25:30:91:50:
         06:81:47:2c:b6:af:22:59:06:c0:04:e1:50:cb:d3:0a:51:bb:
         fd:af:e2:c5:83:ae:94:ca:be:dc:6f:a0:38:3c:5d:e1:c4:40:
         c3:21:95:e1:35:27:c1:9c:fa:1c:a6:7e:fa:c8:df:3b:44:6a:
         ec:e6:ac:df:1d:87:1b:7c:82:48:e1:2a:f0:a2:85:ab:e0:ed:
         d3:9c:b7:bc:e0:b8:35:b0:80:ac:3c:34:0b:de:b0:e2:ba:44:
         b8:b6:97:79:32:fb:6e:50:22:53:6d:0a:b6:f8:4b:ad:19:12:
         30:a7:7a:ba:bf:b0:e1:5d:e2:ef:6f:46:31:61:9d:19:bc:66:
         2a:89:c2:6a:e0:eb:0c:92:f2:db:d3:34:cd:9a:00:18:e9:77:
         af:1c:8e:27:9f:62:ef:b5:b1:1e:6a:ab:d6:70:9b:4c:28:c4:
         a6:49:e1:9a:1d:37:15:f3:89:cf:61:10:99:41:e1:eb:b0:35:
         90:c3:79:6f:36:e5:dc:de:7b:0e:31:72:02:23:a6:8a:16:bd:
         85:b7:11:d4:c2:4b:93:2a:3a:c0:1f:88:0e:b1:f9:a8:8d:bd:
         a0:51:be:63:54:e6:79:4d:9f:14:18:72:46:32:4f:8e:fd:21:
         23:55:a4:d2
-----BEGIN CERTIFICATE-----
MIIDVjCCAj6gAwIBAgIQAxoymXEXaeyA6sVyxLc+hzANBgkqhkiG9w0BAQsFADAW
MRQwEgYDVQQDDAtkYXZpZHJnZm9zczAeFw0yMzAxMjcwNTIwNDVaFw0yNTA1MDEw
NTIwNDVaMBMxETAPBgNVBAMMCGNsaWVudGUyMIIBIjANBgkqhkiG9w0BAQEFAAOC
AQ8AMIIBCgKCAQEAslmYXZ9qD8sqNLXlAX3L9tlwkUNc3bIa97lCWnhbDknw2e/B
GhJ35dltXVq5XFUpGtZ6WHnIJlP3aqRY4bkh/ymybrUDnfIJHIQoEQoHIeEC/Spj
oNQGgrwTYugSplBmC4rKZI7P6Eo1ptsGTRFZuc8tQmSr5Hu6mkgnVinOKT7yGr6E
qSzBD1p/OSKXDLVxQWUV/RuW6rg/x1iflku2uSsFJ4qdZP+3+0zkF6llLdc8mhfL
t93buJewp5t73tH6thN1Q/zGRrwmslk5n2pH9dHp75VTHYGME5NhAOZjz62Rypeu
izBqKjvkkQC0cRtZ4/DKFztR+A3v34i7ARd2jQIDAQABo4GiMIGfMAkGA1UdEwQC
MAAwHQYDVR0OBBYEFCE/KsSvbFQg5WsUqQn48vSKyFheMFEGA1UdIwRKMEiAFAxZ
2YDkCRLyo22jpd6GaCBvCMW+oRqkGDAWMRQwEgYDVQQDDAtkYXZpZHJnZm9zc4IU
SKofsWAaCK3liQVNulbQzzfFPJAwEwYDVR0lBAwwCgYIKwYBBQUHAwIwCwYDVR0P
BAQDAgeAMA0GCSqGSIb3DQEBCwUAA4IBAQBiEgOepwUwbQaJz8B8ICUwkVAGgUcs
tq8iWQbABOFQy9MKUbv9r+LFg66Uyr7cb6A4PF3hxEDDIZXhNSfBnPocpn76yN87
RGrs5qzfHYcbfIJI4SrwooWr4O3TnLe84Lg1sICsPDQL3rDiukS4tpd5MvtuUCJT
bQq2+EutGRIwp3q6v7DhXeLvb0YxYZ0ZvGYqicJq4OsMkvLb0zTNmgAY6XevHI4n
n2LvtbEeaqvWcJtMKMSmSeGaHTcV84nPYRCZQeHrsDWQw3lvNuXc3nsOMXICI6aK
Fr2FtxHUwkuTKjrAH4gOsfmojb2gUb5jVOZ5TZ8UGHJGMk+O/SEjVaTS
-----END CERTIFICATE-----
