Certificate:
    Data:
        Version: 3 (0x2)
        Serial Number:
            30:ec:64:46:b0:58:0e:cb:ad:97:c7:84:f2:90:75:b2
        Signature Algorithm: sha256WithRSAEncryption
        Issuer: CN=davidrgfoss
        Validity
            Not Before: Jan 27 05:11:29 2023 GMT
            Not After : May  1 05:11:29 2025 GMT
        Subject: CN=server2
        Subject Public Key Info:
            Public Key Algorithm: rsaEncryption
                RSA Public-Key: (2048 bit)
                Modulus:
                    00:a6:43:8b:4f:a7:1f:b5:d2:a8:da:3b:45:70:57:
                    85:8f:e1:26:9e:f5:48:e9:6c:4d:1d:ee:41:e9:c5:
                    87:35:5e:05:01:93:a4:12:4b:91:57:cc:3b:f1:8a:
                    9c:64:99:3e:bb:eb:d5:7a:cb:0c:16:77:71:71:81:
                    86:f3:91:c0:3d:47:d9:99:e5:a0:e3:75:fc:c1:61:
                    e2:67:c8:50:5b:2c:16:df:bf:c4:d7:97:63:75:e2:
                    57:4f:bd:a9:ab:74:09:f2:81:dd:b6:56:6f:f6:c3:
                    cf:3b:1b:7a:98:d9:e7:95:70:42:0b:8c:6f:03:ea:
                    f9:84:58:af:38:be:03:03:9e:da:7b:35:27:5e:96:
                    fe:fa:f7:27:2c:e6:3c:ba:79:2b:89:6c:78:8d:0a:
                    29:e4:56:26:2f:f2:d6:a9:36:65:bd:dc:c3:46:d5:
                    b0:ce:94:5f:2c:f9:4f:f7:79:e9:4d:45:1b:bf:35:
                    77:70:48:1f:ad:67:d1:6e:19:dc:60:af:7a:a4:d9:
                    6e:f3:c2:15:eb:b8:c0:d1:80:2a:77:ff:6a:3c:86:
                    0e:79:8d:88:89:d4:0a:82:04:ea:44:91:ac:a0:c6:
                    8b:0d:94:05:60:d5:c6:ba:cb:f7:de:96:e4:62:fe:
                    64:ab:c9:49:7f:55:58:1b:a7:d7:6d:53:6c:fe:66:
                    26:3d
                Exponent: 65537 (0x10001)
        X509v3 extensions:
            X509v3 Basic Constraints: 
                CA:FALSE
            X509v3 Subject Key Identifier: 
                D4:CC:D8:3A:E9:C5:4C:40:DA:B1:BE:3C:EE:77:1B:9A:51:BF:BD:10
            X509v3 Authority Key Identifier: 
                keyid:0C:59:D9:80:E4:09:12:F2:A3:6D:A3:A5:DE:86:68:20:6F:08:C5:BE
                DirName:/CN=davidrgfoss
                serial:48:AA:1F:B1:60:1A:08:AD:E5:89:05:4D:BA:56:D0:CF:37:C5:3C:90

            X509v3 Extended Key Usage: 
                TLS Web Server Authentication
            X509v3 Key Usage: 
                Digital Signature, Key Encipherment
            X509v3 Subject Alternative Name: 
                DNS:server2
    Signature Algorithm: sha256WithRSAEncryption
         2b:d8:7e:0d:80:f2:a8:e3:47:65:51:a4:9e:42:8d:8d:1e:e1:
         ae:bd:89:ad:22:8c:47:fd:63:6c:9d:5c:2f:d1:7d:36:94:85:
         99:b3:b6:f6:7a:ba:08:ec:1f:30:70:4f:f5:fa:77:5c:a9:89:
         75:d8:3f:10:7a:85:d1:45:39:dc:8e:9e:73:15:12:47:7d:90:
         fd:1d:f2:e2:6b:a3:f7:e6:45:1e:e8:8d:4b:3d:29:c8:e3:2e:
         37:ee:36:94:c5:05:06:46:51:72:ed:05:b5:c8:26:7a:12:4e:
         f0:c9:a4:f9:46:e7:aa:ad:95:a8:ed:d8:90:5a:01:65:2f:e1:
         dd:93:ef:04:25:6f:55:a9:66:c8:e9:68:0c:fe:c0:83:62:1c:
         41:f3:31:62:78:9d:65:61:f6:69:9c:41:18:fa:dc:9a:e3:6b:
         20:7f:85:2b:95:03:70:25:d6:8f:08:1f:ef:a5:c6:73:66:22:
         12:d8:05:15:29:82:d0:af:0b:83:d0:05:a8:37:01:12:64:71:
         55:5f:74:2e:9e:12:8d:97:59:e9:cb:86:81:52:5f:e9:11:cb:
         88:42:13:e1:81:f7:6c:48:ce:50:43:86:3f:6a:b3:a4:44:78:
         72:6b:75:9e:a4:d8:b5:3b:1d:4b:b4:af:d9:e5:1f:8f:6f:7a:
         81:7e:22:60
-----BEGIN CERTIFICATE-----
MIIDaTCCAlGgAwIBAgIQMOxkRrBYDsutl8eE8pB1sjANBgkqhkiG9w0BAQsFADAW
MRQwEgYDVQQDDAtkYXZpZHJnZm9zczAeFw0yMzAxMjcwNTExMjlaFw0yNTA1MDEw
NTExMjlaMBIxEDAOBgNVBAMMB3NlcnZlcjIwggEiMA0GCSqGSIb3DQEBAQUAA4IB
DwAwggEKAoIBAQCmQ4tPpx+10qjaO0VwV4WP4Sae9UjpbE0d7kHpxYc1XgUBk6QS
S5FXzDvxipxkmT6769V6ywwWd3FxgYbzkcA9R9mZ5aDjdfzBYeJnyFBbLBbfv8TX
l2N14ldPvamrdAnygd22Vm/2w887G3qY2eeVcEILjG8D6vmEWK84vgMDntp7NSde
lv769ycs5jy6eSuJbHiNCinkViYv8tapNmW93MNG1bDOlF8s+U/3eelNRRu/NXdw
SB+tZ9FuGdxgr3qk2W7zwhXruMDRgCp3/2o8hg55jYiJ1AqCBOpEkaygxosNlAVg
1ca6y/feluRi/mSryUl/VVgbp9dtU2z+ZiY9AgMBAAGjgbYwgbMwCQYDVR0TBAIw
ADAdBgNVHQ4EFgQU1MzYOunFTEDasb487ncbmlG/vRAwUQYDVR0jBEowSIAUDFnZ
gOQJEvKjbaOl3oZoIG8Ixb6hGqQYMBYxFDASBgNVBAMMC2Rhdmlkcmdmb3NzghRI
qh+xYBoIreWJBU26VtDPN8U8kDATBgNVHSUEDDAKBggrBgEFBQcDATALBgNVHQ8E
BAMCBaAwEgYDVR0RBAswCYIHc2VydmVyMjANBgkqhkiG9w0BAQsFAAOCAQEAK9h+
DYDyqONHZVGknkKNjR7hrr2JrSKMR/1jbJ1cL9F9NpSFmbO29nq6COwfMHBP9fp3
XKmJddg/EHqF0UU53I6ecxUSR32Q/R3y4muj9+ZFHuiNSz0pyOMuN+42lMUFBkZR
cu0FtcgmehJO8Mmk+Ubnqq2VqO3YkFoBZS/h3ZPvBCVvValmyOloDP7Ag2IcQfMx
YnidZWH2aZxBGPrcmuNrIH+FK5UDcCXWjwgf76XGc2YiEtgFFSmC0K8Lg9AFqDcB
EmRxVV90Lp4SjZdZ6cuGgVJf6RHLiEIT4YH3bEjOUEOGP2qzpER4cmt1nqTYtTsd
S7Sv2eUfj296gX4iYA==
-----END CERTIFICATE-----
