Certificate:
    Data:
        Version: 3 (0x2)
        Serial Number:
            b7:28:1f:7c:a2:70:34:8a:2f:5e:3b:57:fa:ad:db:2b
        Signature Algorithm: sha256WithRSAEncryption
        Issuer: CN=davidrgfoss
        Validity
            Not Before: Jan 27 05:11:15 2023 GMT
            Not After : May  1 05:11:15 2025 GMT
        Subject: CN=server1
        Subject Public Key Info:
            Public Key Algorithm: rsaEncryption
                RSA Public-Key: (2048 bit)
                Modulus:
                    00:b9:c4:ff:a6:12:be:2a:e9:b2:6f:1f:26:90:75:
                    11:f9:55:c9:d4:99:c8:e2:4d:57:b8:63:c1:7c:90:
                    65:c7:2d:ce:a7:3d:79:1f:0a:f1:54:3c:ef:4f:fc:
                    4c:67:6a:e9:c2:27:8c:42:61:c2:ee:cc:fc:cb:c0:
                    d1:56:01:1f:1f:74:33:60:c5:98:e1:5d:8f:89:75:
                    5d:10:39:1f:1f:86:81:44:70:5e:dc:17:07:56:a9:
                    af:5f:e9:50:a1:ff:69:d2:38:87:4d:3a:b2:7a:8b:
                    01:a1:c2:f6:b5:35:d8:7b:9b:33:4c:98:03:31:7a:
                    89:cb:6f:3c:eb:db:67:d6:6b:63:b5:18:32:0f:de:
                    00:e5:fe:3c:f7:3b:71:ed:e2:45:b8:2f:55:d9:6f:
                    bc:d7:56:51:5e:0b:de:cf:67:0e:88:3f:47:38:96:
                    7a:fb:0a:3b:29:ba:99:54:76:d8:61:cf:22:62:5e:
                    1c:69:73:85:da:54:16:84:dd:e3:85:dc:e6:05:76:
                    50:94:ca:72:c4:5d:e5:c4:c9:b4:3b:be:d6:54:55:
                    06:24:ef:dd:fb:a6:a0:07:41:39:00:3b:d0:23:71:
                    f4:d7:f2:fe:69:6e:96:30:20:6f:c6:ad:95:ea:fa:
                    a2:91:e9:f1:45:16:ce:92:24:26:d6:46:58:0a:1a:
                    20:19
                Exponent: 65537 (0x10001)
        X509v3 extensions:
            X509v3 Basic Constraints: 
                CA:FALSE
            X509v3 Subject Key Identifier: 
                94:29:5A:11:A7:F5:3C:26:EB:18:C8:83:2F:AD:52:E0:03:F4:89:6B
            X509v3 Authority Key Identifier: 
                keyid:0C:59:D9:80:E4:09:12:F2:A3:6D:A3:A5:DE:86:68:20:6F:08:C5:BE
                DirName:/CN=davidrgfoss
                serial:48:AA:1F:B1:60:1A:08:AD:E5:89:05:4D:BA:56:D0:CF:37:C5:3C:90

            X509v3 Extended Key Usage: 
                TLS Web Server Authentication
            X509v3 Key Usage: 
                Digital Signature, Key Encipherment
            X509v3 Subject Alternative Name: 
                DNS:server1
    Signature Algorithm: sha256WithRSAEncryption
         4d:04:0a:1e:d5:8f:85:4d:0b:df:08:76:8e:ed:db:da:cf:6f:
         de:0a:2b:15:5e:ca:eb:0f:77:42:23:ad:29:db:d5:98:69:8b:
         39:0e:95:37:c1:1f:2a:fa:30:ee:9e:98:62:e1:77:78:4a:b2:
         29:9b:ea:56:9a:44:1f:64:56:e2:84:4f:8c:d3:2a:88:da:d0:
         8e:f2:67:95:f3:9d:b1:58:94:4c:d1:54:94:89:88:6d:9e:c1:
         dd:f2:38:bd:87:af:6f:5c:15:90:a7:c8:16:16:64:b5:46:ad:
         0a:6a:c9:76:5a:6e:22:e6:72:38:ce:47:29:bd:65:96:47:94:
         f6:f3:75:63:8e:31:d6:30:13:4c:7d:b6:1d:27:0d:d8:13:cd:
         e6:69:d8:ee:72:7f:27:80:b0:2a:89:f0:f9:c1:5e:f2:d9:3b:
         0b:11:92:65:36:62:65:51:ae:19:d8:3d:99:b6:77:7e:75:00:
         4e:99:91:f3:21:ee:da:ec:5f:3a:3e:db:ce:3c:a7:f8:6b:ca:
         39:ee:f3:c0:9f:e7:12:86:a4:e2:83:da:a8:3e:04:99:bc:47:
         41:23:fe:6d:fd:36:a2:ef:d8:56:f2:ea:10:1a:90:80:97:04:
         66:f6:fb:55:a8:99:34:19:d3:c1:5a:65:92:51:7f:25:33:5b:
         62:80:d3:63
-----BEGIN CERTIFICATE-----
MIIDajCCAlKgAwIBAgIRALcoH3yicDSKL147V/qt2yswDQYJKoZIhvcNAQELBQAw
FjEUMBIGA1UEAwwLZGF2aWRyZ2Zvc3MwHhcNMjMwMTI3MDUxMTE1WhcNMjUwNTAx
MDUxMTE1WjASMRAwDgYDVQQDDAdzZXJ2ZXIxMIIBIjANBgkqhkiG9w0BAQEFAAOC
AQ8AMIIBCgKCAQEAucT/phK+Kumybx8mkHUR+VXJ1JnI4k1XuGPBfJBlxy3Opz15
HwrxVDzvT/xMZ2rpwieMQmHC7sz8y8DRVgEfH3QzYMWY4V2PiXVdEDkfH4aBRHBe
3BcHVqmvX+lQof9p0jiHTTqyeosBocL2tTXYe5szTJgDMXqJy28869tn1mtjtRgy
D94A5f489ztx7eJFuC9V2W+811ZRXgvez2cOiD9HOJZ6+wo7KbqZVHbYYc8iYl4c
aXOF2lQWhN3jhdzmBXZQlMpyxF3lxMm0O77WVFUGJO/d+6agB0E5ADvQI3H01/L+
aW6WMCBvxq2V6vqikenxRRbOkiQm1kZYChogGQIDAQABo4G2MIGzMAkGA1UdEwQC
MAAwHQYDVR0OBBYEFJQpWhGn9Twm6xjIgy+tUuAD9IlrMFEGA1UdIwRKMEiAFAxZ
2YDkCRLyo22jpd6GaCBvCMW+oRqkGDAWMRQwEgYDVQQDDAtkYXZpZHJnZm9zc4IU
SKofsWAaCK3liQVNulbQzzfFPJAwEwYDVR0lBAwwCgYIKwYBBQUHAwEwCwYDVR0P
BAQDAgWgMBIGA1UdEQQLMAmCB3NlcnZlcjEwDQYJKoZIhvcNAQELBQADggEBAE0E
Ch7Vj4VNC98Ido7t29rPb94KKxVeyusPd0IjrSnb1ZhpizkOlTfBHyr6MO6emGLh
d3hKsimb6laaRB9kVuKET4zTKoja0I7yZ5XznbFYlEzRVJSJiG2ewd3yOL2Hr29c
FZCnyBYWZLVGrQpqyXZabiLmcjjORym9ZZZHlPbzdWOOMdYwE0x9th0nDdgTzeZp
2O5yfyeAsCqJ8PnBXvLZOwsRkmU2YmVRrhnYPZm2d351AE6ZkfMh7trsXzo+2848
p/hryjnu88Cf5xKGpOKD2qg+BJm8R0Ej/m39NqLv2Fby6hAakICXBGb2+1WomTQZ
08FaZZJRfyUzW2KA02M=
-----END CERTIFICATE-----
